target datalayout = "e-m:e-p270:32:32-p271:32:32-p272:64:64-i64:64-i128:128-f80:128-n8:16:32:64-S128"
target triple = "x86_64-pc-linux-gnu"

%struct.unicode_cpt_flags = type { i16 }
%"class.std::__cxx11::basic_string" = type { %"struct.std::__cxx11::basic_string<char>::_Alloc_hider", i64, %union.anon }
%"struct.std::__cxx11::basic_string<char>::_Alloc_hider" = type { ptr }
%union.anon = type { i64, [8 x i8] }

@_ZZ27unicode_cpt_flags_from_utf8RKNSt7__cxx1112basic_stringIcSt11char_traitsIcESaIcEEEE5undef = internal global %struct.unicode_cpt_flags zeroinitializer, align 2
@_ZGVZ27unicode_cpt_flags_from_utf8RKNSt7__cxx1112basic_stringIcSt11char_traitsIcESaIcEEEE5undef = internal global i64 0, align 8

; Function Attrs: mustprogress nounwind uwtable
define available_externally noundef i64 @_ZNKSt7__cxx1112basic_stringIcSt11char_traitsIcESaIcEE4sizeEv(ptr noundef nonnull align 8 dereferenceable(32) %0) #0 align 2 {
  %2 = alloca ptr, align 8
  store ptr %0, ptr %2, align 8, !tbaa !8
  %3 = load ptr, ptr %2, align 8
  %4 = getelementptr inbounds nuw %"class.std::__cxx11::basic_string", ptr %3, i32 0, i32 1
  %5 = load i64, ptr %4, align 8, !tbaa !15
  ret i64 %5
}

; Function Attrs: mustprogress nounwind uwtable
define available_externally noundef zeroext i1 @_ZNKSt7__cxx1112basic_stringIcSt11char_traitsIcESaIcEE5emptyEv(ptr noundef nonnull align 8 dereferenceable(32) %0) #0 align 2 {
  %2 = alloca ptr, align 8
  store ptr %0, ptr %2, align 8, !tbaa !8
  %3 = load ptr, ptr %2, align 8
  %4 = call noundef i64 @_ZNKSt7__cxx1112basic_stringIcSt11char_traitsIcESaIcEE4sizeEv(ptr noundef nonnull align 8 dereferenceable(32) %3) #9
  %5 = icmp eq i64 %4, 0
  ret i1 %5
}

; Function Attrs: inlinehint mustprogress nounwind uwtable
define linkonce_odr void @_ZN17unicode_cpt_flagsC2Et(ptr noundef nonnull align 2 dereferenceable(2) %0, i16 noundef zeroext %1) unnamed_addr #10 comdat align 2 {
  %3 = alloca ptr, align 8
  %4 = alloca i16, align 2
  store ptr %0, ptr %3, align 8, !tbaa !46
  store i16 %1, ptr %4, align 2, !tbaa !48
  %5 = load ptr, ptr %3, align 8
  %6 = load i16, ptr %4, align 2, !tbaa !48
  store i16 %6, ptr %5, align 2, !tbaa !48
  ret void
}

; Function Attrs: mustprogress uwtable
define i16 @_Z27unicode_cpt_flags_from_utf8RKNSt7__cxx1112basic_stringIcSt11char_traitsIcESaIcEEE(ptr noundef nonnull align 8 dereferenceable(32) %0) #3 personality ptr @__gxx_personality_v0 {
  %2 = alloca %struct.unicode_cpt_flags, align 2
  %3 = alloca ptr, align 8
  %4 = alloca ptr, align 8
  %5 = alloca i32, align 4
  %6 = alloca i64, align 8
  store ptr %0, ptr %3, align 8, !tbaa !8
  %7 = load atomic i8, ptr @_ZGVZ27unicode_cpt_flags_from_utf8RKNSt7__cxx1112basic_stringIcSt11char_traitsIcESaIcEEEE5undef acquire, align 8
  %8 = icmp eq i8 %7, 0
  br i1 %8, label %9, label %15, !prof !44

9:                                                ; preds = %1
  %10 = call i32 @__cxa_guard_acquire(ptr @_ZGVZ27unicode_cpt_flags_from_utf8RKNSt7__cxx1112basic_stringIcSt11char_traitsIcESaIcEEEE5undef) #9
  %11 = icmp ne i32 %10, 0
  br i1 %11, label %12, label %15

12:                                               ; preds = %9
  invoke void @_ZN17unicode_cpt_flagsC2Et(ptr noundef nonnull align 2 dereferenceable(2) @_ZZ27unicode_cpt_flags_from_utf8RKNSt7__cxx1112basic_stringIcSt11char_traitsIcESaIcEEEE5undef, i16 noundef zeroext 1)
          to label %13 unwind label %19

13:                                               ; preds = %12
  %14 = call ptr @llvm.invariant.start.p0(i64 2, ptr @_ZZ27unicode_cpt_flags_from_utf8RKNSt7__cxx1112basic_stringIcSt11char_traitsIcESaIcEEEE5undef)
  call void @__cxa_guard_release(ptr @_ZGVZ27unicode_cpt_flags_from_utf8RKNSt7__cxx1112basic_stringIcSt11char_traitsIcESaIcEEEE5undef) #9
  br label %15

15:                                               ; preds = %13, %9, %1
  %16 = load ptr, ptr %3, align 8, !tbaa !8
  %17 = call noundef zeroext i1 @_ZNKSt7__cxx1112basic_stringIcSt11char_traitsIcESaIcEE5emptyEv(ptr noundef nonnull align 8 dereferenceable(32) %16) #9
  br i1 %17, label %18, label %23

18:                                               ; preds = %15
  call void @llvm.memcpy.p0.p0.i64(ptr align 2 %2, ptr align 2 @_ZZ27unicode_cpt_flags_from_utf8RKNSt7__cxx1112basic_stringIcSt11char_traitsIcESaIcEEEE5undef, i64 2, i1 false), !tbaa.struct !45
  br label %28

19:                                               ; preds = %12
  %20 = landingpad { ptr, i32 }
          cleanup
  %21 = extractvalue { ptr, i32 } %20, 0
  store ptr %21, ptr %4, align 8
  %22 = extractvalue { ptr, i32 } %20, 1
  store i32 %22, ptr %5, align 4
  call void @__cxa_guard_abort(ptr @_ZGVZ27unicode_cpt_flags_from_utf8RKNSt7__cxx1112basic_stringIcSt11char_traitsIcESaIcEEEE5undef) #9
  br label %31

23:                                               ; preds = %15
  call void @llvm.lifetime.start.p0(i64 8, ptr %6) #9
  store i64 0, ptr %6, align 8, !tbaa !6
  %24 = load ptr, ptr %3, align 8, !tbaa !8
  %25 = call noundef i32 @_Z21unicode_cpt_from_utf8RKNSt7__cxx1112basic_stringIcSt11char_traitsIcESaIcEEERm(ptr noundef nonnull align 8 dereferenceable(32) %24, ptr noundef nonnull align 8 dereferenceable(8) %6)
  %26 = call i16 @_Z26unicode_cpt_flags_from_cptj(i32 noundef %25)
  %27 = getelementptr inbounds nuw %struct.unicode_cpt_flags, ptr %2, i32 0, i32 0
  store i16 %26, ptr %27, align 2
  call void @llvm.lifetime.end.p0(i64 8, ptr %6) #9
  br label %28

28:                                               ; preds = %23, %18
  %29 = getelementptr inbounds nuw %struct.unicode_cpt_flags, ptr %2, i32 0, i32 0
  %30 = load i16, ptr %29, align 2
  ret i16 %30

31:                                               ; preds = %19
  %32 = load ptr, ptr %4, align 8
  %33 = load i32, ptr %5, align 4
  %34 = insertvalue { ptr, i32 } poison, ptr %32, 0
  %35 = insertvalue { ptr, i32 } %34, i32 %33, 1
  resume { ptr, i32 } %35
}