; Function Attrs: mustprogress uwtable
define i16 @_Z27unicode_cpt_flags_from_utf8RKNSt7__cxx1112basic_stringIcSt11char_traitsIcESaIcEEE(ptr noundef nonnull readonly align 8 captures(none) dereferenceable(32) %0) local_unnamed_addr #3 personality ptr @__gxx_personality_v0 {
  %2 = alloca i64, align 8
  %3 = load atomic i8, ptr @_ZGVZ27unicode_cpt_flags_from_utf8RKNSt7__cxx1112basic_stringIcSt11char_traitsIcESaIcEEEE5undef acquire, align 8
  %4 = icmp eq i8 %3, 0
  br i1 %4, label %5, label %9, !prof !33

5:                                                ; preds = %1
  %6 = tail call i32 @__cxa_guard_acquire(ptr nonnull @_ZGVZ27unicode_cpt_flags_from_utf8RKNSt7__cxx1112basic_stringIcSt11char_traitsIcESaIcEEEE5undef) #30
  %.not = icmp eq i32 %6, 0
  br i1 %.not, label %9, label %7

7:                                                ; preds = %5
  store i16 1, ptr @_ZZ27unicode_cpt_flags_from_utf8RKNSt7__cxx1112basic_stringIcSt11char_traitsIcESaIcEEEE5undef, align 2, !tbaa !34
  %8 = tail call ptr @llvm.invariant.start.p0(i64 2, ptr nonnull @_ZZ27unicode_cpt_flags_from_utf8RKNSt7__cxx1112basic_stringIcSt11char_traitsIcESaIcEEEE5undef)
  tail call void @__cxa_guard_release(ptr nonnull @_ZGVZ27unicode_cpt_flags_from_utf8RKNSt7__cxx1112basic_stringIcSt11char_traitsIcESaIcEEEE5undef) #30
  br label %9

9:                                                ; preds = %7, %5, %1
  %10 = getelementptr inbounds nuw i8, ptr %0, i64 8
  %11 = load i64, ptr %10, align 8, !tbaa !13
  %12 = icmp eq i64 %11, 0
  br i1 %12, label %13, label %14

13:                                               ; preds = %9
  %.sroa.0.0.copyload = load i16, ptr @_ZZ27unicode_cpt_flags_from_utf8RKNSt7__cxx1112basic_stringIcSt11char_traitsIcESaIcEEEE5undef, align 2, !tbaa !12
  br label %17

14:                                               ; preds = %9
  call void @llvm.lifetime.start.p0(i64 8, ptr nonnull %2) #30
  store i64 0, ptr %2, align 8, !tbaa !3
  %15 = call noundef i32 @_Z21unicode_cpt_from_utf8RKNSt7__cxx1112basic_stringIcSt11char_traitsIcESaIcEEERm(ptr noundef nonnull align 8 dereferenceable(32) %0, ptr noundef nonnull align 8 dereferenceable(8) %2)
  %16 = tail call i16 @_Z26unicode_cpt_flags_from_cptj(i32 noundef %15)
  call void @llvm.lifetime.end.p0(i64 8, ptr nonnull %2) #30
  br label %17

17:                                               ; preds = %14, %13
  %.sroa.0.0 = phi i16 [ %.sroa.0.0.copyload, %13 ], [ %16, %14 ]
  ret i16 %.sroa.0.0
}